target datalayout = "e-m:e-p270:32:32-p271:32:32-p272:64:64-i64:64-i128:128-f80:128-n8:16:32:64-S128"
target triple = "x86_64-pc-linux-gnu"

%struct._asn1_ctx_t = type { i32, i32, i8, ptr, ptr, ptr, ptr, ptr, %struct.anon.2, %struct.anon.5, %struct.anon.6, ptr }
%struct.anon.2 = type { i32, i8, i8, i8, ptr, ptr, i32, i32, ptr, ptr, ptr, %union.anon }
%union.anon = type { %struct.anon.3 }
%struct.anon.3 = type { ptr }
%struct.anon.5 = type { ptr, ptr, ptr }
%struct.anon.6 = type { i32, i8, ptr, i32, i32, ptr, ptr, ptr, %union.anon.7 }
%union.anon.7 = type { %struct.anon.8 }
%struct.anon.8 = type { ptr }

@object_identifier_id = internal global ptr null, align 8

; Function Attrs: null_pointer_is_valid sspstrong uwtable
define internal i32 @dissect_ldap_T_requestValue(i1 noundef zeroext %0, ptr noundef %1, i32 noundef %2, ptr noundef %3, ptr noundef %4, i32 noundef %5) #0 {
  %7 = alloca i8, align 1
  %8 = alloca ptr, align 8
  %9 = alloca i32, align 4
  %10 = alloca ptr, align 8
  %11 = alloca ptr, align 8
  %12 = alloca i32, align 4
  %13 = zext i1 %0 to i8
  store i8 %13, ptr %7, align 1
  store ptr %1, ptr %8, align 8
  store i32 %2, ptr %9, align 4
  store ptr %3, ptr %10, align 8
  store ptr %4, ptr %11, align 8
  store i32 %5, ptr %12, align 4
  %14 = load ptr, ptr @object_identifier_id, align 8
  %15 = icmp ne ptr %14, null
  br i1 %15, label %16, label %28

16:                                               ; preds = %6
  %17 = load ptr, ptr @object_identifier_id, align 8
  %18 = call zeroext i1 @oid_has_dissector(ptr noundef %17)
  br i1 %18, label %19, label %28

19:                                               ; preds = %16
  %20 = load ptr, ptr @object_identifier_id, align 8
  %21 = load ptr, ptr %8, align 8
  %22 = load i32, ptr %9, align 4
  %23 = load ptr, ptr %10, align 8
  %24 = getelementptr inbounds nuw %struct._asn1_ctx_t, ptr %23, i32 0, i32 3
  %25 = load ptr, ptr %24, align 8
  %26 = load ptr, ptr %11, align 8
  %27 = call i32 @call_ber_oid_callback(ptr noundef %20, ptr noundef %21, i32 noundef %22, ptr noundef %25, ptr noundef %26, ptr noundef null)
  store i32 %27, ptr %9, align 4
  br label %37

28:                                               ; preds = %16, %6
  %29 = load i8, ptr %7, align 1, !range !6, !noundef !7
  %30 = trunc i8 %29 to i1
  %31 = load ptr, ptr %10, align 8
  %32 = load ptr, ptr %11, align 8
  %33 = load ptr, ptr %8, align 8
  %34 = load i32, ptr %9, align 4
  %35 = load i32, ptr %12, align 4
  %36 = call i32 @dissect_ber_octet_string(i1 noundef zeroext %30, ptr noundef %31, ptr noundef %32, ptr noundef %33, i32 noundef %34, i32 noundef %35, ptr noundef null)
  store i32 %36, ptr %9, align 4
  br label %37

37:                                               ; preds = %28, %19
  %38 = load i32, ptr %9, align 4
  ret i32 %38
}