; Function Attrs: null_pointer_is_valid sspstrong uwtable
define internal i32 @dissect_ldap_T_requestValue(i1 noundef zeroext %0, ptr noundef %1, i32 noundef %2, ptr noundef %3, ptr noundef %4, i32 noundef %5) #0 {
  %7 = load ptr, ptr @object_identifier_id, align 8
  %.not = icmp eq ptr %7, null
  br i1 %.not, label %15, label %8

8:                                                ; preds = %6
  %9 = tail call zeroext i1 @oid_has_dissector(ptr noundef nonnull %7)
  br i1 %9, label %10, label %15

10:                                               ; preds = %8
  %11 = load ptr, ptr @object_identifier_id, align 8
  %12 = getelementptr inbounds nuw i8, ptr %3, i64 16
  %13 = load ptr, ptr %12, align 8
  %14 = tail call i32 @call_ber_oid_callback(ptr noundef %11, ptr noundef %1, i32 noundef %2, ptr noundef %13, ptr noundef %4, ptr noundef null)
  br label %17

15:                                               ; preds = %8, %6
  %16 = tail call i32 @dissect_ber_octet_string(i1 noundef zeroext %0, ptr noundef %3, ptr noundef %4, ptr noundef %1, i32 noundef %2, i32 noundef %5, ptr noundef null)
  br label %17

17:                                               ; preds = %15, %10
  %.0 = phi i32 [ %14, %10 ], [ %16, %15 ]
  ret i32 %.0
}